; Function Attrs: mustprogress nofree norecurse nosync nounwind willreturn memory(write, argmem: none, inaccessiblemem: none) uwtable
define void @exr_set_default_maximum_image_size(i32 noundef %0, i32 noundef %1) local_unnamed_addr #2 {
  %3 = or i32 %1, %0
  %or.cond = icmp sgt i32 %3, -1
  br i1 %or.cond, label %4, label %5

4:                                                ; preds = %2
  store i32 %0, ptr @sMaxW, align 4, !tbaa !3
  store i32 %1, ptr @sMaxH, align 4, !tbaa !3
  br label %5

5:                                                ; preds = %4, %2
  ret void
}